(lp1
I24431635
aI78101524
aI44894741
aI65970200
aI39645724
aI61908021
aI71729719
aI26090041
aI83786815
aI26533440
aI96932419
aI76981837
aI13895254
aI75192919
aI12781150
aI22843504
aI28062227
aI94646901
aI24073339
aI18542101
aI50794630
aI68060299
aI58190992
aI75342993
aI23690390
aI79836314
aI72177829
aI79386286
aI63038129
aI15124665
aI17269434
aI13845109
aI86227137
aI51627203
aI81792205
aI73302738
aI56971988
aI55733462
aI79521498
aI86491356
aI60335221
aI37350119
aI75873000
aI46117611
aI70361333
aI92398851
aI75196374
aI35074311
aI49317642
aI90343181
aI40308508
aI37868321
aI76503174
aI91826983
aI50242860
aI54275377
aI19660595
aI57557818
aI97603295
aI65900863
aI21840203
aI57411916
aI38298594
aI45439837
aI32073566
aI90873186
aI82880873
aI55744367
aI88993656
aI16305028
aI51224459
aI76678030
aI95483282
aI59658645
aI21986710
aI96715681
aI79975851
aI22617517
aI63788979
aI15373239
aI28010424
aI78836153
aI70575547
aI51675594
aI37463117
aI78585808
aI96047057
aI91796439
aI87219675
aI22981601
aI41729506
aI86495715
aI10014703
aI46261234
a.